target datalayout = "e-m:e-p270:32:32-p271:32:32-p272:64:64-i64:64-i128:128-f80:128-n8:16:32:64-S128"
target triple = "x86_64-pc-linux-gnu"

%struct.zbuf = type { ptr, i32, i32, i32, [4 x i8], i32, i32, ptr, ptr, ptr, i32, %struct.zhuffman, %struct.zhuffman }
%struct.zhuffman = type { [512 x i16], [16 x i16], [17 x i32], [16 x i16], [288 x i8], [288 x i16] }

; Function Attrs: mustprogress uwtable
define internal void @_ZL9fill_bitsP4zbuf(ptr noundef %0) #0 {
  %2 = alloca i8, align 1
  %3 = alloca i8, align 1
  %4 = alloca i8, align 1
  %5 = alloca i8, align 1
  %6 = alloca i8, align 1
  %7 = alloca i8, align 1
  %8 = alloca ptr, align 8
  %9 = alloca i32, align 4
  %10 = alloca i32, align 4
  %11 = alloca i8, align 1
  %12 = alloca ptr, align 8
  store ptr %0, ptr %12, align 8
  br label %13

13:                                               ; preds = %252, %1
  %14 = load ptr, ptr %12, align 8
  %15 = getelementptr inbounds %struct.zbuf, ptr %14, i32 0, i32 6
  %16 = load i32, ptr %15, align 4
  %17 = load ptr, ptr %12, align 8
  %18 = getelementptr inbounds %struct.zbuf, ptr %17, i32 0, i32 5
  %19 = load i32, ptr %18, align 8
  %20 = shl i32 1, %19
  %21 = icmp uge i32 %16, %20
  br i1 %21, label %22, label %25

22:                                               ; preds = %13
  %23 = load ptr, ptr %12, align 8
  %24 = getelementptr inbounds %struct.zbuf, ptr %23, i32 0, i32 10
  store i32 1, ptr %24, align 8
  br label %257

25:                                               ; preds = %13
  %26 = load ptr, ptr %12, align 8
  store ptr %26, ptr %8, align 8
  store i32 41, ptr %9, align 4
  %27 = load ptr, ptr %8, align 8
  %28 = getelementptr inbounds %struct.zbuf, ptr %27, i32 0, i32 3
  %29 = load i32, ptr %28, align 8
  %30 = and i32 %29, 3
  %31 = icmp eq i32 %30, 0
  br i1 %31, label %32, label %222

32:                                               ; preds = %25
  %33 = load ptr, ptr %8, align 8
  %34 = load ptr, ptr %33, align 8
  %35 = load ptr, ptr %8, align 8
  %36 = getelementptr inbounds %struct.zbuf, ptr %35, i32 0, i32 2
  %37 = load i32, ptr %36, align 4
  %38 = sext i32 %37 to i64
  %39 = getelementptr inbounds i8, ptr %34, i64 %38
  %40 = load i8, ptr %39, align 1
  %41 = sext i8 %40 to i32
  %42 = icmp eq i32 %41, 0
  br i1 %42, label %43, label %65

43:                                               ; preds = %32
  %44 = load ptr, ptr %8, align 8
  %45 = getelementptr inbounds %struct.zbuf, ptr %44, i32 0, i32 1
  %46 = load i32, ptr %45, align 8
  %47 = add nsw i32 %46, 1
  store i32 %47, ptr %45, align 8
  %48 = load ptr, ptr %8, align 8
  %49 = getelementptr inbounds %struct.zbuf, ptr %48, i32 0, i32 1
  %50 = load i32, ptr %49, align 8
  %51 = icmp sge i32 %50, 41
  br i1 %51, label %52, label %55

52:                                               ; preds = %43
  %53 = load ptr, ptr %8, align 8
  %54 = getelementptr inbounds %struct.zbuf, ptr %53, i32 0, i32 10
  store i32 1, ptr %54, align 8
  store i8 0, ptr %7, align 1
  br label %237

55:                                               ; preds = %43
  %56 = load ptr, ptr %8, align 8
  %57 = getelementptr inbounds %struct.zbuf, ptr %56, i32 0, i32 1
  %58 = load i32, ptr %57, align 8
  %59 = sext i32 %58 to i64
  %60 = getelementptr inbounds [41 x ptr], ptr @_ZL21mixbox_lut_compressed, i64 0, i64 %59
  %61 = load ptr, ptr %60, align 8
  %62 = load ptr, ptr %8, align 8
  store ptr %61, ptr %62, align 8
  %63 = load ptr, ptr %8, align 8
  %64 = getelementptr inbounds %struct.zbuf, ptr %63, i32 0, i32 2
  store i32 0, ptr %64, align 4
  br label %65

65:                                               ; preds = %55, %32
  %66 = load ptr, ptr %8, align 8
  %67 = load ptr, ptr %66, align 8
  %68 = load ptr, ptr %8, align 8
  %69 = getelementptr inbounds %struct.zbuf, ptr %68, i32 0, i32 2
  %70 = load i32, ptr %69, align 4
  %71 = sext i32 %70 to i64
  %72 = getelementptr inbounds i8, ptr %67, i64 %71
  %73 = load i8, ptr %72, align 1
  store i8 %73, ptr %2, align 1
  %74 = load i8, ptr %2, align 1
  %75 = sext i8 %74 to i32
  %76 = icmp sge i32 %75, 92
  br i1 %76, label %77, label %81

77:                                               ; preds = %65
  %78 = load i8, ptr %2, align 1
  %79 = sext i8 %78 to i32
  %80 = sub nsw i32 %79, 36
  br label %85

81:                                               ; preds = %65
  %82 = load i8, ptr %2, align 1
  %83 = sext i8 %82 to i32
  %84 = sub nsw i32 %83, 35
  br label %85

85:                                               ; preds = %81, %77
  %86 = phi i32 [ %80, %77 ], [ %84, %81 ]
  %87 = trunc i32 %86 to i8
  %88 = zext i8 %87 to i32
  %89 = load ptr, ptr %8, align 8
  %90 = load ptr, ptr %89, align 8
  %91 = load ptr, ptr %8, align 8
  %92 = getelementptr inbounds %struct.zbuf, ptr %91, i32 0, i32 2
  %93 = load i32, ptr %92, align 4
  %94 = add nsw i32 %93, 1
  %95 = sext i32 %94 to i64
  %96 = getelementptr inbounds i8, ptr %90, i64 %95
  %97 = load i8, ptr %96, align 1
  store i8 %97, ptr %3, align 1
  %98 = load i8, ptr %3, align 1
  %99 = sext i8 %98 to i32
  %100 = icmp sge i32 %99, 92
  br i1 %100, label %101, label %105

101:                                              ; preds = %85
  %102 = load i8, ptr %3, align 1
  %103 = sext i8 %102 to i32
  %104 = sub nsw i32 %103, 36
  br label %109

105:                                              ; preds = %85
  %106 = load i8, ptr %3, align 1
  %107 = sext i8 %106 to i32
  %108 = sub nsw i32 %107, 35
  br label %109

109:                                              ; preds = %105, %101
  %110 = phi i32 [ %104, %101 ], [ %108, %105 ]
  %111 = trunc i32 %110 to i8
  %112 = zext i8 %111 to i32
  %113 = load ptr, ptr %8, align 8
  %114 = load ptr, ptr %113, align 8
  %115 = load ptr, ptr %8, align 8
  %116 = getelementptr inbounds %struct.zbuf, ptr %115, i32 0, i32 2
  %117 = load i32, ptr %116, align 4
  %118 = add nsw i32 %117, 2
  %119 = sext i32 %118 to i64
  %120 = getelementptr inbounds i8, ptr %114, i64 %119
  %121 = load i8, ptr %120, align 1
  store i8 %121, ptr %4, align 1
  %122 = load i8, ptr %4, align 1
  %123 = sext i8 %122 to i32
  %124 = icmp sge i32 %123, 92
  br i1 %124, label %125, label %129

125:                                              ; preds = %109
  %126 = load i8, ptr %4, align 1
  %127 = sext i8 %126 to i32
  %128 = sub nsw i32 %127, 36
  br label %133

129:                                              ; preds = %109
  %130 = load i8, ptr %4, align 1
  %131 = sext i8 %130 to i32
  %132 = sub nsw i32 %131, 35
  br label %133

133:                                              ; preds = %129, %125
  %134 = phi i32 [ %128, %125 ], [ %132, %129 ]
  %135 = trunc i32 %134 to i8
  %136 = zext i8 %135 to i32
  %137 = load ptr, ptr %8, align 8
  %138 = load ptr, ptr %137, align 8
  %139 = load ptr, ptr %8, align 8
  %140 = getelementptr inbounds %struct.zbuf, ptr %139, i32 0, i32 2
  %141 = load i32, ptr %140, align 4
  %142 = add nsw i32 %141, 3
  %143 = sext i32 %142 to i64
  %144 = getelementptr inbounds i8, ptr %138, i64 %143
  %145 = load i8, ptr %144, align 1
  store i8 %145, ptr %5, align 1
  %146 = load i8, ptr %5, align 1
  %147 = sext i8 %146 to i32
  %148 = icmp sge i32 %147, 92
  br i1 %148, label %149, label %153

149:                                              ; preds = %133
  %150 = load i8, ptr %5, align 1
  %151 = sext i8 %150 to i32
  %152 = sub nsw i32 %151, 36
  br label %157

153:                                              ; preds = %133
  %154 = load i8, ptr %5, align 1
  %155 = sext i8 %154 to i32
  %156 = sub nsw i32 %155, 35
  br label %157

157:                                              ; preds = %153, %149
  %158 = phi i32 [ %152, %149 ], [ %156, %153 ]
  %159 = trunc i32 %158 to i8
  %160 = zext i8 %159 to i32
  %161 = load ptr, ptr %8, align 8
  %162 = load ptr, ptr %161, align 8
  %163 = load ptr, ptr %8, align 8
  %164 = getelementptr inbounds %struct.zbuf, ptr %163, i32 0, i32 2
  %165 = load i32, ptr %164, align 4
  %166 = add nsw i32 %165, 4
  %167 = sext i32 %166 to i64
  %168 = getelementptr inbounds i8, ptr %162, i64 %167
  %169 = load i8, ptr %168, align 1
  store i8 %169, ptr %6, align 1
  %170 = load i8, ptr %6, align 1
  %171 = sext i8 %170 to i32
  %172 = icmp sge i32 %171, 92
  br i1 %172, label %173, label %177

173:                                              ; preds = %157
  %174 = load i8, ptr %6, align 1
  %175 = sext i8 %174 to i32
  %176 = sub nsw i32 %175, 36
  br label %181

177:                                              ; preds = %157
  %178 = load i8, ptr %6, align 1
  %179 = sext i8 %178 to i32
  %180 = sub nsw i32 %179, 35
  br label %181

181:                                              ; preds = %177, %173
  %182 = phi i32 [ %176, %173 ], [ %180, %177 ]
  %183 = trunc i32 %182 to i8
  %184 = zext i8 %183 to i32
  %185 = mul nsw i32 85, %184
  %186 = add nsw i32 %160, %185
  %187 = mul nsw i32 85, %186
  %188 = add nsw i32 %136, %187
  %189 = mul nsw i32 85, %188
  %190 = add nsw i32 %112, %189
  %191 = mul nsw i32 85, %190
  %192 = add nsw i32 %88, %191
  store i32 %192, ptr %10, align 4
  %193 = load i32, ptr %10, align 4
  %194 = and i32 %193, 255
  %195 = trunc i32 %194 to i8
  %196 = load ptr, ptr %8, align 8
  %197 = getelementptr inbounds %struct.zbuf, ptr %196, i32 0, i32 4
  store i8 %195, ptr %197, align 4
  %198 = load i32, ptr %10, align 4
  %199 = lshr i32 %198, 8
  %200 = and i32 %199, 255
  %201 = trunc i32 %200 to i8
  %202 = load ptr, ptr %8, align 8
  %203 = getelementptr inbounds %struct.zbuf, ptr %202, i32 0, i32 4
  %204 = getelementptr inbounds [4 x i8], ptr %203, i64 0, i64 1
  store i8 %201, ptr %204, align 1
  %205 = load i32, ptr %10, align 4
  %206 = lshr i32 %205, 16
  %207 = and i32 %206, 255
  %208 = trunc i32 %207 to i8
  %209 = load ptr, ptr %8, align 8
  %210 = getelementptr inbounds %struct.zbuf, ptr %209, i32 0, i32 4
  %211 = getelementptr inbounds [4 x i8], ptr %210, i64 0, i64 2
  store i8 %208, ptr %211, align 2
  %212 = load i32, ptr %10, align 4
  %213 = lshr i32 %212, 24
  %214 = trunc i32 %213 to i8
  %215 = load ptr, ptr %8, align 8
  %216 = getelementptr inbounds %struct.zbuf, ptr %215, i32 0, i32 4
  %217 = getelementptr inbounds [4 x i8], ptr %216, i64 0, i64 3
  store i8 %214, ptr %217, align 1
  %218 = load ptr, ptr %8, align 8
  %219 = getelementptr inbounds %struct.zbuf, ptr %218, i32 0, i32 2
  %220 = load i32, ptr %219, align 4
  %221 = add nsw i32 %220, 5
  store i32 %221, ptr %219, align 4
  br label %222

222:                                              ; preds = %181, %25
  %223 = load ptr, ptr %8, align 8
  %224 = getelementptr inbounds %struct.zbuf, ptr %223, i32 0, i32 4
  %225 = load ptr, ptr %8, align 8
  %226 = getelementptr inbounds %struct.zbuf, ptr %225, i32 0, i32 3
  %227 = load i32, ptr %226, align 8
  %228 = and i32 %227, 3
  %229 = sext i32 %228 to i64
  %230 = getelementptr inbounds [4 x i8], ptr %224, i64 0, i64 %229
  %231 = load i8, ptr %230, align 1
  store i8 %231, ptr %11, align 1
  %232 = load ptr, ptr %8, align 8
  %233 = getelementptr inbounds %struct.zbuf, ptr %232, i32 0, i32 3
  %234 = load i32, ptr %233, align 8
  %235 = add nsw i32 %234, 1
  store i32 %235, ptr %233, align 8
  %236 = load i8, ptr %11, align 1
  store i8 %236, ptr %7, align 1
  br label %237

237:                                              ; preds = %222, %52
  %238 = load i8, ptr %7, align 1
  %239 = zext i8 %238 to i32
  %240 = load ptr, ptr %12, align 8
  %241 = getelementptr inbounds %struct.zbuf, ptr %240, i32 0, i32 5
  %242 = load i32, ptr %241, align 8
  %243 = shl i32 %239, %242
  %244 = load ptr, ptr %12, align 8
  %245 = getelementptr inbounds %struct.zbuf, ptr %244, i32 0, i32 6
  %246 = load i32, ptr %245, align 4
  %247 = or i32 %246, %243
  store i32 %247, ptr %245, align 4
  %248 = load ptr, ptr %12, align 8
  %249 = getelementptr inbounds %struct.zbuf, ptr %248, i32 0, i32 5
  %250 = load i32, ptr %249, align 8
  %251 = add nsw i32 %250, 8
  store i32 %251, ptr %249, align 8
  br label %252

252:                                              ; preds = %237
  %253 = load ptr, ptr %12, align 8
  %254 = getelementptr inbounds %struct.zbuf, ptr %253, i32 0, i32 5
  %255 = load i32, ptr %254, align 8
  %256 = icmp sle i32 %255, 24
  br i1 %256, label %13, label %257, !llvm.loop !20

257:                                              ; preds = %252, %22
  ret void
}