; Function Attrs: mustprogress nofree norecurse nosync nounwind memory(read, argmem: readwrite, inaccessiblemem: none) uwtable
define internal fastcc void @_ZL9fill_bitsP4zbuf(ptr nocapture noundef %0) unnamed_addr #6 {
  %2 = getelementptr inbounds i8, ptr %0, i64 28
  %3 = getelementptr inbounds i8, ptr %0, i64 24
  %.promoted = load i32, ptr %2, align 4
  %.promoted60 = load i32, ptr %3, align 8
  %4 = getelementptr inbounds i8, ptr %0, i64 16
  %5 = getelementptr inbounds i8, ptr %0, i64 12
  %6 = getelementptr inbounds i8, ptr %0, i64 8
  %7 = getelementptr inbounds i8, ptr %0, i64 20
  %8 = getelementptr inbounds i8, ptr %0, i64 21
  %9 = getelementptr inbounds i8, ptr %0, i64 22
  %10 = getelementptr inbounds i8, ptr %0, i64 23
  %11 = getelementptr inbounds i8, ptr %0, i64 56
  br label %12

12:                                               ; preds = %86, %1
  %13 = phi i32 [ %90, %86 ], [ %.promoted60, %1 ]
  %14 = phi i32 [ %89, %86 ], [ %.promoted, %1 ]
  %.highbits = lshr i32 %14, %13
  %.not = icmp eq i32 %.highbits, 0
  br i1 %.not, label %16, label %15

15:                                               ; preds = %12
  store i32 1, ptr %11, align 8
  br label %.loopexit

16:                                               ; preds = %12
  %17 = load i32, ptr %4, align 8
  %18 = and i32 %17, 3
  %19 = icmp eq i32 %18, 0
  br i1 %19, label %20, label %81

20:                                               ; preds = %16
  %21 = load ptr, ptr %0, align 8
  %22 = load i32, ptr %5, align 4
  %23 = sext i32 %22 to i64
  %24 = getelementptr inbounds i8, ptr %21, i64 %23
  %25 = load i8, ptr %24, align 1
  %26 = icmp eq i8 %25, 0
  br i1 %26, label %27, label %36

27:                                               ; preds = %20
  %28 = load i32, ptr %6, align 8
  %29 = add nsw i32 %28, 1
  store i32 %29, ptr %6, align 8
  %30 = icmp sgt i32 %28, 39
  br i1 %30, label %31, label %32

31:                                               ; preds = %27
  store i32 1, ptr %11, align 8
  br label %86

32:                                               ; preds = %27
  %33 = sext i32 %29 to i64
  %34 = getelementptr inbounds [41 x ptr], ptr @_ZL21mixbox_lut_compressed, i64 0, i64 %33
  %35 = load ptr, ptr %34, align 8
  store ptr %35, ptr %0, align 8
  store i32 0, ptr %5, align 4
  %.pre = load i8, ptr %35, align 1
  br label %36

36:                                               ; preds = %32, %20
  %37 = phi i8 [ %.pre, %32 ], [ %25, %20 ]
  %38 = phi i32 [ 0, %32 ], [ %22, %20 ]
  %39 = phi ptr [ %35, %32 ], [ %21, %20 ]
  %40 = sext i32 %38 to i64
  %41 = getelementptr inbounds i8, ptr %39, i64 %40
  %42 = icmp sgt i8 %37, 91
  %.v = select i1 %42, i8 -36, i8 -35
  %43 = add i8 %.v, %37
  %44 = zext i8 %43 to i32
  %45 = getelementptr i8, ptr %41, i64 1
  %46 = load i8, ptr %45, align 1
  %47 = icmp sgt i8 %46, 91
  %.v56 = select i1 %47, i8 -36, i8 -35
  %48 = add i8 %.v56, %46
  %49 = zext i8 %48 to i32
  %50 = getelementptr i8, ptr %41, i64 2
  %51 = load i8, ptr %50, align 1
  %52 = icmp sgt i8 %51, 91
  %.v57 = select i1 %52, i8 -36, i8 -35
  %53 = add i8 %.v57, %51
  %54 = zext i8 %53 to i32
  %55 = getelementptr i8, ptr %41, i64 3
  %56 = load i8, ptr %55, align 1
  %57 = icmp sgt i8 %56, 91
  %.v58 = select i1 %57, i8 -36, i8 -35
  %58 = add i8 %.v58, %56
  %59 = zext i8 %58 to i32
  %60 = getelementptr i8, ptr %41, i64 4
  %61 = load i8, ptr %60, align 1
  %62 = icmp sgt i8 %61, 91
  %.v59 = select i1 %62, i8 -36, i8 -35
  %63 = add i8 %.v59, %61
  %64 = zext i8 %63 to i32
  %65 = mul nuw nsw i32 %64, 85
  %66 = add nuw nsw i32 %65, %59
  %67 = mul nuw nsw i32 %66, 85
  %68 = add nuw nsw i32 %67, %54
  %69 = mul nuw nsw i32 %68, 85
  %70 = add nuw nsw i32 %69, %49
  %71 = mul nsw i32 %70, 85
  %72 = add nsw i32 %71, %44
  %73 = trunc i32 %72 to i8
  store i8 %73, ptr %7, align 4
  %74 = lshr i32 %72, 8
  %75 = trunc i32 %74 to i8
  store i8 %75, ptr %8, align 1
  %76 = lshr i32 %72, 16
  %77 = trunc i32 %76 to i8
  store i8 %77, ptr %9, align 2
  %78 = lshr i32 %72, 24
  %79 = trunc i32 %78 to i8
  store i8 %79, ptr %10, align 1
  %80 = add nsw i32 %38, 5
  store i32 %80, ptr %5, align 4
  br label %81

81:                                               ; preds = %36, %16
  %82 = zext nneg i32 %18 to i64
  %83 = getelementptr inbounds [4 x i8], ptr %7, i64 0, i64 %82
  %84 = load i8, ptr %83, align 1
  %85 = add nsw i32 %17, 1
  store i32 %85, ptr %4, align 8
  br label %86

86:                                               ; preds = %81, %31
  %.0 = phi i8 [ 0, %31 ], [ %84, %81 ]
  %87 = zext i8 %.0 to i32
  %88 = shl i32 %87, %13
  %89 = or i32 %88, %14
  store i32 %89, ptr %2, align 4
  %90 = add nsw i32 %13, 8
  store i32 %90, ptr %3, align 8
  %91 = icmp slt i32 %13, 17
  br i1 %91, label %12, label %.loopexit, !llvm.loop !10

.loopexit:                                        ; preds = %86, %15
  ret void
}